; Function Attrs: nounwind uwtable
define hidden range(i32 -1, 1) i32 @hwloc_internal_distances_add(ptr noundef %0, ptr noundef readonly captures(address_is_null) %1, i32 noundef %2, ptr noundef %3, ptr noundef %4, i64 noundef %5, i64 noundef %6) local_unnamed_addr #1 {
  %8 = tail call noalias dereferenceable_or_null(88) ptr @calloc(i64 noundef 1, i64 noundef 88) #31
  %.not21.i = icmp eq ptr %8, null
  br i1 %.not21.i, label %hwloc_backend_distances_add_create.exit.thread, label %9

9:                                                ; preds = %7
  %.not22.i = icmp eq ptr %1, null
  br i1 %.not22.i, label %13, label %10

10:                                               ; preds = %9
  %11 = tail call noalias ptr @strdup(ptr noundef nonnull readonly %1) #27
  store ptr %11, ptr %8, align 8, !tbaa !43
  %.not23.i = icmp eq ptr %11, null
  br i1 %.not23.i, label %12, label %13

12:                                               ; preds = %10
  tail call void @free(ptr noundef nonnull %8) #27
  br label %hwloc_backend_distances_add_create.exit.thread

13:                                               ; preds = %10, %9
  %14 = getelementptr inbounds nuw i8, ptr %8, i64 48
  store i64 %5, ptr %14, align 8, !tbaa !57
  %15 = getelementptr inbounds nuw i8, ptr %8, i64 56
  store i32 2, ptr %15, align 8, !tbaa !59
  %16 = getelementptr inbounds nuw i8, ptr %8, i64 12
  store i32 -1, ptr %16, align 4, !tbaa !56
  %17 = getelementptr inbounds nuw i8, ptr %0, i64 744
  %18 = load i32, ptr %17, align 8, !tbaa !50
  %19 = add i32 %18, 1
  store i32 %19, ptr %17, align 8, !tbaa !50
  %20 = getelementptr inbounds nuw i8, ptr %8, i64 8
  store i32 %18, ptr %20, align 8, !tbaa !58
  %21 = tail call i32 @hwloc_backend_distances_add_values(ptr poison, ptr noundef nonnull %8, i32 noundef %2, ptr noundef %3, ptr noundef %4, i64 noundef 0)
  %22 = icmp slt i32 %21, 0
  br i1 %22, label %hwloc_backend_distances_add_create.exit.thread, label %23

23:                                               ; preds = %13
  %24 = tail call i32 @hwloc_backend_distances_add_commit(ptr noundef nonnull %0, ptr noundef nonnull %8, i64 noundef %6)
  %25 = icmp slt i32 %24, 0
  br i1 %25, label %hwloc_backend_distances_add_create.exit.thread, label %26

hwloc_backend_distances_add_create.exit.thread:   ; preds = %12, %7, %23, %13
  %.017 = phi ptr [ %4, %13 ], [ null, %23 ], [ %4, %7 ], [ %4, %12 ]
  %.016 = phi ptr [ %3, %13 ], [ null, %23 ], [ %3, %7 ], [ %3, %12 ]
  tail call void @free(ptr noundef %.016) #27
  tail call void @free(ptr noundef %.017) #27
  br label %26

26:                                               ; preds = %23, %hwloc_backend_distances_add_create.exit.thread
  %.0 = phi i32 [ -1, %hwloc_backend_distances_add_create.exit.thread ], [ 0, %23 ]
  ret i32 %.0
}